target datalayout = "e-m:e-p270:32:32-p271:32:32-p272:64:64-i64:64-i128:128-f80:128-n8:16:32:64-S128"
target triple = "x86_64-pc-linux-gnu"

%"class.absl::lts_20240722::AnyInvocable" = type { %"class.absl::lts_20240722::internal_any_invocable::Impl" }
%"class.absl::lts_20240722::internal_any_invocable::Impl" = type { %"class.absl::lts_20240722::internal_any_invocable::CoreImpl" }
%"class.absl::lts_20240722::internal_any_invocable::CoreImpl" = type { %"union.absl::lts_20240722::internal_any_invocable::TypeErasedState", ptr, ptr }
%"union.absl::lts_20240722::internal_any_invocable::TypeErasedState" = type { %struct.anon }
%struct.anon = type { ptr, i64 }
%class.anon.61 = type { ptr, [8 x i8], %"class.absl::lts_20240722::AnyInvocable" }

; Function Attrs: mustprogress nounwind uwtable
define linkonce_odr void @_ZN4absl12lts_2024072222internal_any_invocable8CoreImplILb0EvJEEC2EOS3_(ptr noundef nonnull align 16 dereferenceable(32) %0, ptr noundef nonnull align 16 dereferenceable(32) %1) unnamed_addr #6 comdat align 2 {
  %3 = alloca ptr, align 8
  %4 = alloca ptr, align 8
  store ptr %0, ptr %3, align 8, !tbaa !27
  store ptr %1, ptr %4, align 8, !tbaa !27
  %5 = load ptr, ptr %3, align 8
  %6 = load ptr, ptr %4, align 8, !tbaa !27
  %7 = getelementptr inbounds nuw %"class.absl::lts_20240722::internal_any_invocable::CoreImpl", ptr %6, i32 0, i32 1
  %8 = load ptr, ptr %7, align 16, !tbaa !29
  %9 = load ptr, ptr %4, align 8, !tbaa !27
  %10 = getelementptr inbounds nuw %"class.absl::lts_20240722::internal_any_invocable::CoreImpl", ptr %9, i32 0, i32 0
  %11 = getelementptr inbounds nuw %"class.absl::lts_20240722::internal_any_invocable::CoreImpl", ptr %5, i32 0, i32 0
  call void %8(i1 noundef zeroext false, ptr noundef %10, ptr noundef %11) #3
  %12 = load ptr, ptr %4, align 8, !tbaa !27
  %13 = getelementptr inbounds nuw %"class.absl::lts_20240722::internal_any_invocable::CoreImpl", ptr %12, i32 0, i32 1
  %14 = load ptr, ptr %13, align 16, !tbaa !29
  %15 = getelementptr inbounds nuw %"class.absl::lts_20240722::internal_any_invocable::CoreImpl", ptr %5, i32 0, i32 1
  store ptr %14, ptr %15, align 16, !tbaa !29
  %16 = load ptr, ptr %4, align 8, !tbaa !27
  %17 = getelementptr inbounds nuw %"class.absl::lts_20240722::internal_any_invocable::CoreImpl", ptr %16, i32 0, i32 2
  %18 = load ptr, ptr %17, align 8, !tbaa !168
  %19 = getelementptr inbounds nuw %"class.absl::lts_20240722::internal_any_invocable::CoreImpl", ptr %5, i32 0, i32 2
  store ptr %18, ptr %19, align 8, !tbaa !168
  %20 = load ptr, ptr %4, align 8, !tbaa !27
  %21 = getelementptr inbounds nuw %"class.absl::lts_20240722::internal_any_invocable::CoreImpl", ptr %20, i32 0, i32 1
  store ptr @_ZN4absl12lts_2024072222internal_any_invocable12EmptyManagerENS1_14FunctionToCallEPNS1_15TypeErasedStateES4_, ptr %21, align 16, !tbaa !29
  %22 = load ptr, ptr %4, align 8, !tbaa !27
  %23 = getelementptr inbounds nuw %"class.absl::lts_20240722::internal_any_invocable::CoreImpl", ptr %22, i32 0, i32 2
  store ptr null, ptr %23, align 8, !tbaa !168
  ret void
}

; Function Attrs: inlinehint mustprogress nounwind uwtable
define linkonce_odr void @_ZN4absl12lts_2024072222internal_any_invocable4ImplIFvvEEC2EOS4_(ptr noundef nonnull align 16 dereferenceable(32) %0, ptr noundef nonnull align 16 dereferenceable(32) %1) unnamed_addr #8 comdat align 2 {
  %3 = alloca ptr, align 8
  %4 = alloca ptr, align 8
  store ptr %0, ptr %3, align 8, !tbaa !166
  store ptr %1, ptr %4, align 8, !tbaa !166
  %5 = load ptr, ptr %3, align 8
  %6 = load ptr, ptr %4, align 8, !tbaa !166
  call void @_ZN4absl12lts_2024072222internal_any_invocable8CoreImplILb0EvJEEC2EOS3_(ptr noundef nonnull align 16 dereferenceable(32) %5, ptr noundef nonnull align 16 dereferenceable(32) %6) #3
  ret void
}

; Function Attrs: mustprogress nounwind uwtable
define linkonce_odr void @_ZN4absl12lts_2024072222internal_any_invocable8CoreImplILb0EvJEED2Ev(ptr noundef nonnull align 16 dereferenceable(32) %0) unnamed_addr #6 comdat align 2 {
  %2 = alloca ptr, align 8
  store ptr %0, ptr %2, align 8, !tbaa !27
  %3 = load ptr, ptr %2, align 8
  %4 = getelementptr inbounds nuw %"class.absl::lts_20240722::internal_any_invocable::CoreImpl", ptr %3, i32 0, i32 1
  %5 = load ptr, ptr %4, align 16, !tbaa !29
  %6 = getelementptr inbounds nuw %"class.absl::lts_20240722::internal_any_invocable::CoreImpl", ptr %3, i32 0, i32 0
  %7 = getelementptr inbounds nuw %"class.absl::lts_20240722::internal_any_invocable::CoreImpl", ptr %3, i32 0, i32 0
  call void %5(i1 noundef zeroext true, ptr noundef %6, ptr noundef %7) #3
  ret void
}

; Function Attrs: mustprogress nounwind uwtable
define linkonce_odr void @_ZN4absl12lts_2024072212AnyInvocableIFvvEEC2EOS3_(ptr noundef nonnull align 16 dereferenceable(32) %0, ptr noundef nonnull align 16 dereferenceable(32) %1) unnamed_addr #6 comdat align 2 {
  %3 = alloca ptr, align 8
  %4 = alloca ptr, align 8
  store ptr %0, ptr %3, align 8, !tbaa !8
  store ptr %1, ptr %4, align 8, !tbaa !8
  %5 = load ptr, ptr %3, align 8
  %6 = load ptr, ptr %4, align 8, !tbaa !8
  call void @_ZN4absl12lts_2024072222internal_any_invocable4ImplIFvvEEC2EOS4_(ptr noundef nonnull align 16 dereferenceable(32) %5, ptr noundef nonnull align 16 dereferenceable(32) %6) #3
  ret void
}

; Function Attrs: inlinehint mustprogress uwtable
define internal void @"_ZZN17grpc_event_engine12experimental18ThreadyEventEngine8RunAfterENSt6chrono8durationIlSt5ratioILl1ELl1000000000EEEEN4absl12lts_2024072212AnyInvocableIFvvEEEEN3$_0clEv"(ptr noundef nonnull align 16 dereferenceable(48) %0) #7 align 2 personality ptr @__gxx_personality_v0 {
  %2 = alloca ptr, align 8
  %3 = alloca %"class.absl::lts_20240722::AnyInvocable", align 16
  %4 = alloca ptr, align 8
  %5 = alloca i32, align 4
  store ptr %0, ptr %2, align 8, !tbaa !68
  %6 = load ptr, ptr %2, align 8
  %7 = getelementptr inbounds nuw %class.anon.61, ptr %6, i32 0, i32 0
  %8 = load ptr, ptr %7, align 16, !tbaa !141
  %9 = getelementptr inbounds nuw %class.anon.61, ptr %6, i32 0, i32 2
  call void @_ZN4absl12lts_2024072212AnyInvocableIFvvEEC2EOS3_(ptr noundef nonnull align 16 dereferenceable(32) %3, ptr noundef nonnull align 16 dereferenceable(32) %9) #3
  invoke void @_ZN17grpc_event_engine12experimental18ThreadyEventEngine14AsynchronouslyEN4absl12lts_2024072212AnyInvocableIFvvEEE(ptr noundef nonnull align 8 dereferenceable(40) %8, ptr noundef %3)
          to label %10 unwind label %11

10:                                               ; preds = %1
  call void @_ZN4absl12lts_2024072222internal_any_invocable8CoreImplILb0EvJEED2Ev(ptr noundef nonnull align 16 dereferenceable(32) %3) #3
  ret void

11:                                               ; preds = %1
  %12 = landingpad { ptr, i32 }
          cleanup
  %13 = extractvalue { ptr, i32 } %12, 0
  store ptr %13, ptr %4, align 8
  %14 = extractvalue { ptr, i32 } %12, 1
  store i32 %14, ptr %5, align 4
  call void @_ZN4absl12lts_2024072222internal_any_invocable8CoreImplILb0EvJEED2Ev(ptr noundef nonnull align 16 dereferenceable(32) %3) #3
  br label %15

15:                                               ; preds = %11
  %16 = load ptr, ptr %4, align 8
  %17 = load i32, ptr %5, align 4
  %18 = insertvalue { ptr, i32 } poison, ptr %16, 0
  %19 = insertvalue { ptr, i32 } %18, i32 %17, 1
  resume { ptr, i32 } %19
}

; Function Attrs: mustprogress uwtable
define internal void @"_ZSt13__invoke_implIvRZN17grpc_event_engine12experimental18ThreadyEventEngine8RunAfterENSt6chrono8durationIlSt5ratioILl1ELl1000000000EEEEN4absl12lts_2024072212AnyInvocableIFvvEEEE3$_0JEET_St14__invoke_otherOT0_DpOT1_"(ptr noundef nonnull align 16 dereferenceable(48) %0) #4 {
  %2 = alloca ptr, align 8
  store ptr %0, ptr %2, align 8, !tbaa !68
  %3 = load ptr, ptr %2, align 8, !tbaa !68
  call void @"_ZZN17grpc_event_engine12experimental18ThreadyEventEngine8RunAfterENSt6chrono8durationIlSt5ratioILl1ELl1000000000EEEEN4absl12lts_2024072212AnyInvocableIFvvEEEEN3$_0clEv"(ptr noundef nonnull align 16 dereferenceable(48) %3)
  ret void
}

; Function Attrs: mustprogress uwtable
define internal void @"_ZSt8__invokeIRZN17grpc_event_engine12experimental18ThreadyEventEngine8RunAfterENSt6chrono8durationIlSt5ratioILl1ELl1000000000EEEEN4absl12lts_2024072212AnyInvocableIFvvEEEE3$_0JEENSt15__invoke_resultIT_JDpT0_EE4typeEOSG_DpOSH_"(ptr noundef nonnull align 16 dereferenceable(48) %0) #4 {
  %2 = alloca ptr, align 8
  store ptr %0, ptr %2, align 8, !tbaa !68
  %3 = load ptr, ptr %2, align 8, !tbaa !68
  call void @"_ZSt13__invoke_implIvRZN17grpc_event_engine12experimental18ThreadyEventEngine8RunAfterENSt6chrono8durationIlSt5ratioILl1ELl1000000000EEEEN4absl12lts_2024072212AnyInvocableIFvvEEEE3$_0JEET_St14__invoke_otherOT0_DpOT1_"(ptr noundef nonnull align 16 dereferenceable(48) %3)
  ret void
}

; Function Attrs: inlinehint mustprogress uwtable
define internal void @"_ZSt6invokeIRZN17grpc_event_engine12experimental18ThreadyEventEngine8RunAfterENSt6chrono8durationIlSt5ratioILl1ELl1000000000EEEEN4absl12lts_2024072212AnyInvocableIFvvEEEE3$_0JEENSt13invoke_resultIT_JDpT0_EE4typeEOSG_DpOSH_"(ptr noundef nonnull align 16 dereferenceable(48) %0) #7 {
  %2 = alloca ptr, align 8
  store ptr %0, ptr %2, align 8, !tbaa !68
  %3 = load ptr, ptr %2, align 8, !tbaa !68
  call void @"_ZSt8__invokeIRZN17grpc_event_engine12experimental18ThreadyEventEngine8RunAfterENSt6chrono8durationIlSt5ratioILl1ELl1000000000EEEEN4absl12lts_2024072212AnyInvocableIFvvEEEE3$_0JEENSt15__invoke_resultIT_JDpT0_EE4typeEOSG_DpOSH_"(ptr noundef nonnull align 16 dereferenceable(48) %3)
  ret void
}

; Function Attrs: mustprogress uwtable
define internal void @"_ZN4absl12lts_2024072222internal_any_invocable7InvokeRIvRZN17grpc_event_engine12experimental18ThreadyEventEngine8RunAfterENSt6chrono8durationIlSt5ratioILl1ELl1000000000EEEENS0_12AnyInvocableIFvvEEEE3$_0JEvEEvOT0_DpOT1_"(ptr noundef nonnull align 16 dereferenceable(48) %0) #4 {
  %2 = alloca ptr, align 8
  store ptr %0, ptr %2, align 8, !tbaa !68
  %3 = load ptr, ptr %2, align 8, !tbaa !68
  call void @"_ZSt6invokeIRZN17grpc_event_engine12experimental18ThreadyEventEngine8RunAfterENSt6chrono8durationIlSt5ratioILl1ELl1000000000EEEEN4absl12lts_2024072212AnyInvocableIFvvEEEE3$_0JEENSt13invoke_resultIT_JDpT0_EE4typeEOSG_DpOSH_"(ptr noundef nonnull align 16 dereferenceable(48) %3)
  ret void
}

; Function Attrs: mustprogress uwtable
define internal void @"_ZN4absl12lts_2024072222internal_any_invocable13RemoteInvokerILb0EvRZN17grpc_event_engine12experimental18ThreadyEventEngine8RunAfterENSt6chrono8durationIlSt5ratioILl1ELl1000000000EEEENS0_12AnyInvocableIFvvEEEE3$_0JEEET0_PNS1_15TypeErasedStateEDpNS1_18ForwardedParameterIT2_E4typeE"(ptr noundef %0) #4 {
  %2 = alloca ptr, align 8
  %3 = alloca ptr, align 8
  store ptr %0, ptr %2, align 8, !tbaa !171
  call void @llvm.lifetime.start.p0(i64 8, ptr %3) #3
  %4 = load ptr, ptr %2, align 8, !tbaa !171
  %5 = getelementptr inbounds nuw %struct.anon, ptr %4, i32 0, i32 0
  %6 = load ptr, ptr %5, align 16, !tbaa !98
  store ptr %6, ptr %3, align 8, !tbaa !68
  %7 = load ptr, ptr %3, align 8, !tbaa !68
  call void @"_ZN4absl12lts_2024072222internal_any_invocable7InvokeRIvRZN17grpc_event_engine12experimental18ThreadyEventEngine8RunAfterENSt6chrono8durationIlSt5ratioILl1ELl1000000000EEEENS0_12AnyInvocableIFvvEEEE3$_0JEvEEvOT0_DpOT1_"(ptr noundef nonnull align 16 dereferenceable(48) %7)
  call void @llvm.lifetime.end.p0(i64 8, ptr %3) #3
  ret void
}