; Function Attrs: mustprogress uwtable
define internal void @"_ZN4absl12lts_2024072222internal_any_invocable13RemoteInvokerILb0EvRZN17grpc_event_engine12experimental18ThreadyEventEngine8RunAfterENSt6chrono8durationIlSt5ratioILl1ELl1000000000EEEENS0_12AnyInvocableIFvvEEEE3$_0JEEET0_PNS1_15TypeErasedStateEDpNS1_18ForwardedParameterIT2_E4typeE"(ptr noundef readonly captures(none) %0) #3 personality ptr @__gxx_personality_v0 {
  %2 = alloca %"class.absl::lts_20240722::AnyInvocable", align 16
  %3 = load ptr, ptr %0, align 16, !tbaa !50
  call void @llvm.lifetime.start.p0(i64 32, ptr nonnull %2)
  %4 = getelementptr inbounds nuw i8, ptr %3, i64 16
  %5 = getelementptr inbounds nuw i8, ptr %3, i64 32
  %6 = load ptr, ptr %5, align 16, !tbaa !3
  call void %6(i1 noundef zeroext false, ptr noundef nonnull align 16 dereferenceable(32) %4, ptr noundef nonnull align 16 dereferenceable(32) %2) #26
  %7 = load ptr, ptr %5, align 16, !tbaa !3
  %8 = getelementptr inbounds nuw i8, ptr %2, i64 16
  store ptr %7, ptr %8, align 16, !tbaa !3
  %9 = getelementptr inbounds nuw i8, ptr %3, i64 40
  %10 = load ptr, ptr %9, align 8, !tbaa !8
  %11 = getelementptr inbounds nuw i8, ptr %2, i64 24
  store ptr %10, ptr %11, align 8, !tbaa !8
  store ptr @_ZN4absl12lts_2024072222internal_any_invocable12EmptyManagerENS1_14FunctionToCallEPNS1_15TypeErasedStateES4_, ptr %5, align 16, !tbaa !3
  store ptr null, ptr %9, align 8, !tbaa !8
  invoke void @_ZN17grpc_event_engine12experimental18ThreadyEventEngine14AsynchronouslyEN4absl12lts_2024072212AnyInvocableIFvvEEE(ptr nonnull align 8 poison, ptr noundef nonnull %2)
          to label %"_ZN4absl12lts_2024072222internal_any_invocable7InvokeRIvRZN17grpc_event_engine12experimental18ThreadyEventEngine8RunAfterENSt6chrono8durationIlSt5ratioILl1ELl1000000000EEEENS0_12AnyInvocableIFvvEEEE3$_0JEvEEvOT0_DpOT1_.exit" unwind label %12

12:                                               ; preds = %1
  %13 = landingpad { ptr, i32 }
          cleanup
  %14 = load ptr, ptr %8, align 16, !tbaa !3
  call void %14(i1 noundef zeroext true, ptr noundef nonnull align 16 dereferenceable(32) %2, ptr noundef nonnull align 16 dereferenceable(32) %2) #26
  resume { ptr, i32 } %13

"_ZN4absl12lts_2024072222internal_any_invocable7InvokeRIvRZN17grpc_event_engine12experimental18ThreadyEventEngine8RunAfterENSt6chrono8durationIlSt5ratioILl1ELl1000000000EEEENS0_12AnyInvocableIFvvEEEE3$_0JEvEEvOT0_DpOT1_.exit": ; preds = %1
  %15 = load ptr, ptr %8, align 16, !tbaa !3
  call void %15(i1 noundef zeroext true, ptr noundef nonnull align 16 dereferenceable(32) %2, ptr noundef nonnull align 16 dereferenceable(32) %2) #26
  call void @llvm.lifetime.end.p0(i64 32, ptr nonnull %2)
  ret void
}